; Function Attrs: mustprogress nofree norecurse nosync nounwind willreturn memory(read, inaccessiblemem: none) uwtable
define dso_local noundef ptr @_ZNK2cm6String13str_if_stableB5cxx11Ev(ptr noundef nonnull readonly align 8 captures(none) dereferenceable(32) %0) local_unnamed_addr #4 align 2 {
  %2 = getelementptr inbounds nuw i8, ptr %0, i64 24
  %3 = load ptr, ptr %2, align 8, !tbaa !4
  %.not = icmp eq ptr %3, null
  br i1 %.not, label %15, label %4

4:                                                ; preds = %1
  %5 = load ptr, ptr %0, align 8, !tbaa !12
  %.not2 = icmp eq ptr %5, null
  br i1 %.not2, label %15, label %6

6:                                                ; preds = %4
  %7 = load ptr, ptr %5, align 8, !tbaa !33
  %8 = icmp eq ptr %3, %7
  br i1 %8, label %9, label %15

9:                                                ; preds = %6
  %10 = getelementptr inbounds nuw i8, ptr %0, i64 16
  %11 = load i64, ptr %10, align 8, !tbaa !11
  %12 = getelementptr inbounds nuw i8, ptr %5, i64 8
  %13 = load i64, ptr %12, align 8, !tbaa !35
  %14 = icmp eq i64 %11, %13
  %spec.select = select i1 %14, ptr %5, ptr null
  br label %15

15:                                               ; preds = %9, %4, %6, %1
  %.0 = phi ptr [ @_ZN2cmL13empty_string_B5cxx11E, %1 ], [ null, %6 ], [ null, %4 ], [ %spec.select, %9 ]
  ret ptr %.0
}